; Function Attrs: nounwind uwtable
define internal i32 @rv30_decode_mb_info(ptr noundef captures(none) %0) #2 {
  %2 = getelementptr inbounds nuw i8, ptr %0, i64 4160
  %3 = getelementptr inbounds nuw i8, ptr %0, i64 4176
  %4 = load i32, ptr %3, align 8, !tbaa !70
  %5 = getelementptr inbounds nuw i8, ptr %0, i64 4184
  %6 = load i32, ptr %5, align 8, !tbaa !71
  %7 = load ptr, ptr %2, align 8, !tbaa !72
  %8 = lshr i32 %4, 3
  %9 = zext nneg i32 %8 to i64
  %10 = getelementptr inbounds nuw i8, ptr %7, i64 %9
  %11 = load i32, ptr %10, align 1, !tbaa !61
  %12 = tail call i32 @llvm.bswap.i32(i32 %11)
  %13 = and i32 %4, 7
  %14 = shl i32 %12, %13
  %15 = and i32 %14, -1434451968
  %.not.i = icmp eq i32 %15, 0
  br i1 %.not.i, label %.preheader.i, label %16

16:                                               ; preds = %1
  %17 = lshr i32 %14, 24
  %18 = zext nneg i32 %17 to i64
  %19 = getelementptr inbounds nuw [256 x i8], ptr @ff_interleaved_golomb_vlc_len, i64 0, i64 %18
  %20 = load i8, ptr %19, align 1, !tbaa !61
  %21 = zext i8 %20 to i32
  %22 = add i32 %4, %21
  %..i = tail call i32 @llvm.umin.i32(i32 %6, i32 %22)
  store i32 %..i, ptr %3, align 8, !tbaa !70
  %23 = getelementptr inbounds nuw [256 x i8], ptr @ff_interleaved_ue_golomb_vlc_code, i64 0, i64 %18
  %24 = load i8, ptr %23, align 1, !tbaa !61
  %25 = zext i8 %24 to i32
  br label %get_interleaved_ue_golomb.exit

.preheader.i:                                     ; preds = %1, %40
  %.045.i = phi i32 [ %52, %40 ], [ %14, %1 ]
  %.044.i = phi i32 [ %spec.select56.i, %40 ], [ %4, %1 ]
  %.0.i = phi i32 [ %45, %40 ], [ 1, %1 ]
  %26 = lshr i32 %.045.i, 24
  %27 = zext nneg i32 %26 to i64
  %28 = getelementptr inbounds nuw [256 x i8], ptr @ff_interleaved_golomb_vlc_len, i64 0, i64 %27
  %29 = load i8, ptr %28, align 1, !tbaa !61
  %spec.select57.i = tail call i8 @llvm.umin.i8(i8 %29, i8 8)
  %spec.select.i = zext nneg i8 %spec.select57.i to i32
  %30 = add i32 %.044.i, %spec.select.i
  %spec.select56.i = tail call i32 @llvm.umin.i32(i32 %6, i32 %30)
  %.not54.i = icmp eq i8 %29, 9
  br i1 %.not54.i, label %40, label %31

31:                                               ; preds = %.preheader.i
  %32 = zext i8 %29 to i32
  %33 = add nsw i32 %32, -1
  %34 = ashr i32 %33, 1
  %35 = shl i32 %.0.i, %34
  %36 = getelementptr inbounds nuw [256 x i8], ptr @ff_interleaved_dirac_golomb_vlc_code, i64 0, i64 %27
  %37 = load i8, ptr %36, align 1, !tbaa !61
  %38 = zext i8 %37 to i32
  %39 = or i32 %35, %38
  br label %.loopexit.i

40:                                               ; preds = %.preheader.i
  %41 = shl i32 %.0.i, 4
  %42 = getelementptr inbounds nuw [256 x i8], ptr @ff_interleaved_dirac_golomb_vlc_code, i64 0, i64 %27
  %43 = load i8, ptr %42, align 1, !tbaa !61
  %44 = zext i8 %43 to i32
  %45 = or i32 %41, %44
  %46 = lshr i32 %spec.select56.i, 3
  %47 = zext nneg i32 %46 to i64
  %48 = getelementptr inbounds nuw i8, ptr %7, i64 %47
  %49 = load i32, ptr %48, align 1, !tbaa !61
  %50 = tail call i32 @llvm.bswap.i32(i32 %49)
  %51 = and i32 %spec.select56.i, 7
  %52 = shl i32 %50, %51
  %53 = icmp ult i32 %41, 134217728
  %54 = icmp ult i32 %30, %6
  %55 = select i1 %53, i1 %54, i1 false
  br i1 %55, label %.preheader.i, label %.loopexit.i, !llvm.loop !79

.loopexit.i:                                      ; preds = %40, %31
  %.1.i = phi i32 [ %39, %31 ], [ %45, %40 ]
  store i32 %spec.select56.i, ptr %3, align 8, !tbaa !70
  %56 = add i32 %.1.i, -1
  br label %get_interleaved_ue_golomb.exit

get_interleaved_ue_golomb.exit:                   ; preds = %16, %.loopexit.i
  %.043.i = phi i32 [ %25, %16 ], [ %56, %.loopexit.i ]
  %57 = icmp ugt i32 %.043.i, 11
  br i1 %57, label %58, label %61

58:                                               ; preds = %get_interleaved_ue_golomb.exit
  %59 = getelementptr inbounds nuw i8, ptr %0, i64 472
  %60 = load ptr, ptr %59, align 8, !tbaa !85
  tail call void (ptr, i32, ptr, ...) @av_log(ptr noundef %60, i32 noundef 16, ptr noundef nonnull @.str.7) #6
  br label %77

61:                                               ; preds = %get_interleaved_ue_golomb.exit
  %62 = icmp samesign ugt i32 %.043.i, 5
  br i1 %62, label %63, label %67

63:                                               ; preds = %61
  %64 = getelementptr inbounds nuw i8, ptr %0, i64 472
  %65 = load ptr, ptr %64, align 8, !tbaa !85
  tail call void (ptr, i32, ptr, ...) @av_log(ptr noundef %65, i32 noundef 16, ptr noundef nonnull @.str.8) #6
  %66 = add nsw i32 %.043.i, -6
  br label %67

67:                                               ; preds = %63, %61
  %.0 = phi i32 [ %66, %63 ], [ %.043.i, %61 ]
  %68 = getelementptr inbounds nuw i8, ptr %0, i64 1480
  %69 = load i32, ptr %68, align 8, !tbaa !86
  %.not = icmp eq i32 %69, 3
  %70 = zext nneg i32 %.0 to i64
  br i1 %.not, label %74, label %71

71:                                               ; preds = %67
  %72 = getelementptr inbounds nuw [6 x i32], ptr @rv30_decode_mb_info.rv30_p_types, i64 0, i64 %70
  %73 = load i32, ptr %72, align 4, !tbaa !87
  br label %77

74:                                               ; preds = %67
  %75 = getelementptr inbounds nuw [6 x i32], ptr @rv30_decode_mb_info.rv30_b_types, i64 0, i64 %70
  %76 = load i32, ptr %75, align 4, !tbaa !87
  br label %77

77:                                               ; preds = %74, %71, %58
  %.011 = phi i32 [ -1, %58 ], [ %73, %71 ], [ %76, %74 ]
  ret i32 %.011
}